; Function Attrs: nounwind uwtable
define dso_local void @append_grep_pat(ptr noundef captures(none) %0, ptr noundef %1, i64 noundef %2, ptr noundef %3, i32 noundef %4, i32 noundef %5) local_unnamed_addr #0 {
  %7 = tail call ptr @xcalloc(i64 noundef 1, i64 noundef 160) #18
  %8 = tail call ptr @xmemdupz(ptr noundef %1, i64 noundef %2) #18
  %9 = getelementptr inbounds nuw i8, ptr %7, i64 24
  store ptr %8, ptr %9, align 8, !tbaa !30
  %10 = getelementptr inbounds nuw i8, ptr %7, i64 32
  store i64 %2, ptr %10, align 8, !tbaa !36
  %11 = getelementptr inbounds nuw i8, ptr %7, i64 8
  store ptr %3, ptr %11, align 8, !tbaa !37
  %12 = getelementptr inbounds nuw i8, ptr %7, i64 16
  store i32 %4, ptr %12, align 8, !tbaa !38
  %13 = getelementptr inbounds nuw i8, ptr %7, i64 20
  store i32 %5, ptr %13, align 4, !tbaa !39
  %14 = getelementptr inbounds nuw i8, ptr %7, i64 40
  store i32 0, ptr %14, align 8, !tbaa !40
  %15 = getelementptr inbounds nuw i8, ptr %0, i64 8
  %16 = load ptr, ptr %15, align 8, !tbaa !42
  store ptr %7, ptr %16, align 8, !tbaa !43
  store ptr %7, ptr %15, align 8, !tbaa !42
  store ptr null, ptr %7, align 8, !tbaa !44
  %switch.i = icmp ult i32 %5, 3
  br i1 %switch.i, label %.preheader.i, label %do_append_grep_pat.exit

.preheader.i:                                     ; preds = %6, %41
  %17 = phi ptr [ %.pre, %41 ], [ %8, %6 ]
  %18 = phi i64 [ %43, %41 ], [ %2, %6 ]
  %19 = getelementptr inbounds nuw i8, ptr %17, i64 %18
  br label %20

20:                                               ; preds = %22, %.preheader.i
  %.031.i = phi i64 [ 0, %.preheader.i ], [ %21, %22 ]
  %.030.i = phi ptr [ %19, %.preheader.i ], [ %23, %22 ]
  %21 = add i64 %.031.i, 1
  %.not.i = icmp ugt i64 %21, %18
  br i1 %.not.i, label %do_append_grep_pat.exit, label %22

22:                                               ; preds = %20
  %23 = getelementptr inbounds i8, ptr %.030.i, i64 -1
  %24 = load i8, ptr %23, align 1, !tbaa !23
  %25 = icmp eq i8 %24, 10
  br i1 %25, label %26, label %20, !llvm.loop !45

26:                                               ; preds = %22
  %27 = load ptr, ptr %11, align 8, !tbaa !37
  %28 = load i32, ptr %12, align 8, !tbaa !38
  %29 = load i32, ptr %13, align 4, !tbaa !39
  %30 = load i32, ptr %14, align 8, !tbaa !40
  %31 = tail call ptr @xcalloc(i64 noundef 1, i64 noundef 160) #18
  %32 = tail call ptr @xmemdupz(ptr noundef nonnull %.030.i, i64 noundef %.031.i) #18
  %33 = getelementptr inbounds nuw i8, ptr %31, i64 24
  store ptr %32, ptr %33, align 8, !tbaa !30
  %34 = getelementptr inbounds nuw i8, ptr %31, i64 32
  store i64 %.031.i, ptr %34, align 8, !tbaa !36
  %35 = getelementptr inbounds nuw i8, ptr %31, i64 8
  store ptr %27, ptr %35, align 8, !tbaa !37
  %36 = getelementptr inbounds nuw i8, ptr %31, i64 16
  store i32 %28, ptr %36, align 8, !tbaa !38
  %37 = getelementptr inbounds nuw i8, ptr %31, i64 20
  store i32 %29, ptr %37, align 4, !tbaa !39
  %38 = getelementptr inbounds nuw i8, ptr %31, i64 40
  store i32 %30, ptr %38, align 8, !tbaa !40
  %39 = load ptr, ptr %7, align 8, !tbaa !44
  store ptr %39, ptr %31, align 8, !tbaa !44
  %.not34.i = icmp eq ptr %39, null
  br i1 %.not34.i, label %40, label %41

40:                                               ; preds = %26
  store ptr %31, ptr %15, align 8, !tbaa !42
  br label %41

41:                                               ; preds = %40, %26
  store ptr %31, ptr %7, align 8, !tbaa !44
  store i8 0, ptr %23, align 1, !tbaa !23
  %42 = load i64, ptr %10, align 8, !tbaa !36
  %43 = sub i64 %42, %21
  store i64 %43, ptr %10, align 8, !tbaa !36
  %.pre = load ptr, ptr %9, align 8, !tbaa !30
  br label %.preheader.i

do_append_grep_pat.exit:                          ; preds = %20, %6
  ret void
}